; Function Attrs: mustprogress uwtable
define noundef nonnull align 8 dereferenceable(64) ptr @_ZNK6icu_7522TransliteratorRegistry18getAvailableSourceEiRNS_13UnicodeStringE(ptr nocapture noundef nonnull readonly align 8 dereferenceable(312) %this, i32 noundef %index, ptr noundef nonnull returned align 8 dereferenceable(64) %result) local_unnamed_addr #1 align 2 {
entry:
  %pos = alloca i32, align 4
  store i32 -1, ptr %pos, align 4
  %cmp8 = icmp sgt i32 %index, -1
  br i1 %cmp8, label %while.body.lr.ph, label %if.then4

while.body.lr.ph:                                 ; preds = %entry
  %specDAG = getelementptr inbounds i8, ptr %this, i64 96
  br label %while.body

while.cond:                                       ; preds = %while.body
  %dec = add nsw i32 %index.addr.09, -1
  %cmp = icmp sgt i32 %index.addr.09, 0
  br i1 %cmp, label %while.body, label %if.else, !llvm.loop !13

while.body:                                       ; preds = %while.body.lr.ph, %while.cond
  %index.addr.09 = phi i32 [ %index, %while.body.lr.ph ], [ %dec, %while.cond ]
  %0 = load ptr, ptr %specDAG, align 8
  %call.i = call noundef ptr @uhash_nextElement_75(ptr noundef %0, ptr noundef nonnull %pos)
  %cmp2 = icmp eq ptr %call.i, null
  br i1 %cmp2, label %if.then4, label %while.cond, !llvm.loop !13

if.then4:                                         ; preds = %while.body, %entry
  %fUnion.i.i = getelementptr inbounds i8, ptr %result, i64 8
  %1 = load i16, ptr %fUnion.i.i, align 8
  %conv2.i5.i = and i16 %1, 1
  %tobool.i.not = icmp eq i16 %conv2.i5.i, 0
  br i1 %tobool.i.not, label %if.else.i, label %if.then.i

if.then.i:                                        ; preds = %if.then4
  call void @_ZN6icu_7513UnicodeString7unBogusEv(ptr noundef nonnull align 8 dereferenceable(64) %result)
  br label %if.end7

if.else.i:                                        ; preds = %if.then4
  %cmp.i.i.i = icmp slt i16 %1, 0
  %2 = ashr i16 %1, 5
  %shr.i.i.i = sext i16 %2 to i32
  %fLength.i.i = getelementptr inbounds i8, ptr %result, i64 12
  %3 = load i32, ptr %fLength.i.i, align 4
  %cond.i.i = select i1 %cmp.i.i.i, i32 %3, i32 %shr.i.i.i
  %cmp3.i.not = icmp eq i32 %cond.i.i, 0
  br i1 %cmp3.i.not, label %if.end7, label %if.then4.i

if.then4.i:                                       ; preds = %if.else.i
  %4 = and i16 %1, 30
  store i16 %4, ptr %fUnion.i.i, align 8
  br label %if.end7

if.else:                                          ; preds = %while.cond
  %key = getelementptr inbounds i8, ptr %call.i, i64 16
  %5 = load ptr, ptr %key, align 8
  %call6 = call noundef nonnull align 8 dereferenceable(64) ptr @_ZN6icu_7513UnicodeStringaSERKS0_(ptr noundef nonnull align 8 dereferenceable(64) %result, ptr noundef nonnull align 8 dereferenceable(64) %5)
  br label %if.end7

if.end7:                                          ; preds = %if.then4.i, %if.else.i, %if.then.i, %if.else
  ret ptr %result
}